target datalayout = "e-m:e-p270:32:32-p271:32:32-p272:64:64-i64:64-i128:128-f80:128-n8:16:32:64-S128"
target triple = "x86_64-pc-linux-gnu"

%struct.ref_dir = type { i32, i32, i32, ptr, ptr }
%struct.ref_entry = type { i8, %union.anon, [0 x i8] }
%union.anon = type { %struct.ref_value }
%struct.ref_value = type { %struct.object_id, ptr }
%struct.object_id = type { [32 x i8], i32 }
%struct.ref_cache = type { ptr, ptr, ptr }

@.str = private unnamed_addr constant [17 x i8] c"refs/ref-cache.c\00", align 1
@.str.1 = private unnamed_addr constant [51 x i8] c"incomplete ref_store without fill_ref_dir function\00", align 1

; Function Attrs: nounwind uwtable
define internal i32 @overlaps_prefix(ptr noundef %0, ptr noundef %1) #0 {
  %3 = alloca i32, align 4
  %4 = alloca ptr, align 8
  %5 = alloca ptr, align 8
  store ptr %0, ptr %4, align 8, !tbaa !27
  store ptr %1, ptr %5, align 8, !tbaa !27
  br label %6

6:                                                ; preds = %21, %2
  %7 = load ptr, ptr %5, align 8, !tbaa !27
  %8 = load i8, ptr %7, align 1, !tbaa !21
  %9 = sext i8 %8 to i32
  %10 = icmp ne i32 %9, 0
  br i1 %10, label %11, label %19

11:                                               ; preds = %6
  %12 = load ptr, ptr %4, align 8, !tbaa !27
  %13 = load i8, ptr %12, align 1, !tbaa !21
  %14 = sext i8 %13 to i32
  %15 = load ptr, ptr %5, align 8, !tbaa !27
  %16 = load i8, ptr %15, align 1, !tbaa !21
  %17 = sext i8 %16 to i32
  %18 = icmp eq i32 %14, %17
  br label %19

19:                                               ; preds = %11, %6
  %20 = phi i1 [ false, %6 ], [ %18, %11 ]
  br i1 %20, label %21, label %26

21:                                               ; preds = %19
  %22 = load ptr, ptr %4, align 8, !tbaa !27
  %23 = getelementptr inbounds nuw i8, ptr %22, i32 1
  store ptr %23, ptr %4, align 8, !tbaa !27
  %24 = load ptr, ptr %5, align 8, !tbaa !27
  %25 = getelementptr inbounds nuw i8, ptr %24, i32 1
  store ptr %25, ptr %5, align 8, !tbaa !27
  br label %6, !llvm.loop !70

26:                                               ; preds = %19
  %27 = load ptr, ptr %5, align 8, !tbaa !27
  %28 = load i8, ptr %27, align 1, !tbaa !21
  %29 = icmp ne i8 %28, 0
  br i1 %29, label %31, label %30

30:                                               ; preds = %26
  store i32 0, ptr %3, align 4
  br label %37

31:                                               ; preds = %26
  %32 = load ptr, ptr %4, align 8, !tbaa !27
  %33 = load i8, ptr %32, align 1, !tbaa !21
  %34 = icmp ne i8 %33, 0
  br i1 %34, label %36, label %35

35:                                               ; preds = %31
  store i32 1, ptr %3, align 4
  br label %37

36:                                               ; preds = %31
  store i32 2, ptr %3, align 4
  br label %37

37:                                               ; preds = %36, %35, %30
  %38 = load i32, ptr %3, align 4
  ret i32 %38
}

; Function Attrs: nounwind uwtable
define dso_local ptr @get_ref_dir(ptr noundef %0) #0 {
  %2 = alloca ptr, align 8
  %3 = alloca ptr, align 8
  store ptr %0, ptr %2, align 8, !tbaa !9
  call void @llvm.lifetime.start.p0(i64 8, ptr %3) #10
  %4 = load ptr, ptr %2, align 8, !tbaa !9
  %5 = getelementptr inbounds nuw %struct.ref_entry, ptr %4, i32 0, i32 1
  store ptr %5, ptr %3, align 8, !tbaa !4
  %6 = load ptr, ptr %2, align 8, !tbaa !9
  %7 = getelementptr inbounds nuw %struct.ref_entry, ptr %6, i32 0, i32 0
  %8 = load i8, ptr %7, align 8, !tbaa !21
  %9 = zext i8 %8 to i32
  %10 = and i32 %9, 32
  %11 = icmp ne i32 %10, 0
  br i1 %11, label %12, label %41

12:                                               ; preds = %1
  %13 = load ptr, ptr %3, align 8, !tbaa !4
  %14 = getelementptr inbounds nuw %struct.ref_dir, ptr %13, i32 0, i32 3
  %15 = load ptr, ptr %14, align 8, !tbaa !22
  %16 = getelementptr inbounds nuw %struct.ref_cache, ptr %15, i32 0, i32 2
  %17 = load ptr, ptr %16, align 8, !tbaa !23
  %18 = icmp ne ptr %17, null
  br i1 %18, label %20, label %19

19:                                               ; preds = %12
  call void (ptr, i32, ptr, ...) @BUG_fl(ptr noundef @.str, i32 noundef 28, ptr noundef @.str.1) #9
  unreachable

20:                                               ; preds = %12
  %21 = load ptr, ptr %3, align 8, !tbaa !4
  %22 = getelementptr inbounds nuw %struct.ref_dir, ptr %21, i32 0, i32 3
  %23 = load ptr, ptr %22, align 8, !tbaa !22
  %24 = getelementptr inbounds nuw %struct.ref_cache, ptr %23, i32 0, i32 2
  %25 = load ptr, ptr %24, align 8, !tbaa !23
  %26 = load ptr, ptr %3, align 8, !tbaa !4
  %27 = getelementptr inbounds nuw %struct.ref_dir, ptr %26, i32 0, i32 3
  %28 = load ptr, ptr %27, align 8, !tbaa !22
  %29 = getelementptr inbounds nuw %struct.ref_cache, ptr %28, i32 0, i32 1
  %30 = load ptr, ptr %29, align 8, !tbaa !26
  %31 = load ptr, ptr %3, align 8, !tbaa !4
  %32 = load ptr, ptr %2, align 8, !tbaa !9
  %33 = getelementptr inbounds nuw %struct.ref_entry, ptr %32, i32 0, i32 2
  %34 = getelementptr inbounds [0 x i8], ptr %33, i64 0, i64 0
  call void %25(ptr noundef %30, ptr noundef %31, ptr noundef %34)
  %35 = load ptr, ptr %2, align 8, !tbaa !9
  %36 = getelementptr inbounds nuw %struct.ref_entry, ptr %35, i32 0, i32 0
  %37 = load i8, ptr %36, align 8, !tbaa !21
  %38 = zext i8 %37 to i32
  %39 = and i32 %38, -33
  %40 = trunc i32 %39 to i8
  store i8 %40, ptr %36, align 8, !tbaa !21
  br label %41

41:                                               ; preds = %20, %1
  %42 = load ptr, ptr %3, align 8, !tbaa !4
  call void @llvm.lifetime.end.p0(i64 8, ptr %3) #10
  ret ptr %42
}

; Function Attrs: nounwind uwtable
define internal void @prime_ref_dir(ptr noundef %0, ptr noundef %1) #0 {
  %3 = alloca ptr, align 8
  %4 = alloca ptr, align 8
  %5 = alloca i32, align 4
  %6 = alloca ptr, align 8
  store ptr %0, ptr %3, align 8, !tbaa !4
  store ptr %1, ptr %4, align 8, !tbaa !27
  call void @llvm.lifetime.start.p0(i64 4, ptr %5) #10
  store i32 0, ptr %5, align 4, !tbaa !31
  br label %7

7:                                                ; preds = %50, %2
  %8 = load i32, ptr %5, align 4, !tbaa !31
  %9 = load ptr, ptr %3, align 8, !tbaa !4
  %10 = getelementptr inbounds nuw %struct.ref_dir, ptr %9, i32 0, i32 0
  %11 = load i32, ptr %10, align 8, !tbaa !11
  %12 = icmp slt i32 %8, %11
  br i1 %12, label %13, label %53

13:                                               ; preds = %7
  call void @llvm.lifetime.start.p0(i64 8, ptr %6) #10
  %14 = load ptr, ptr %3, align 8, !tbaa !4
  %15 = getelementptr inbounds nuw %struct.ref_dir, ptr %14, i32 0, i32 4
  %16 = load ptr, ptr %15, align 8, !tbaa !17
  %17 = load i32, ptr %5, align 4, !tbaa !31
  %18 = sext i32 %17 to i64
  %19 = getelementptr inbounds ptr, ptr %16, i64 %18
  %20 = load ptr, ptr %19, align 8, !tbaa !9
  store ptr %20, ptr %6, align 8, !tbaa !9
  %21 = load ptr, ptr %6, align 8, !tbaa !9
  %22 = getelementptr inbounds nuw %struct.ref_entry, ptr %21, i32 0, i32 0
  %23 = load i8, ptr %22, align 8, !tbaa !21
  %24 = zext i8 %23 to i32
  %25 = and i32 %24, 16
  %26 = icmp ne i32 %25, 0
  br i1 %26, label %28, label %27

27:                                               ; preds = %13
  br label %49

28:                                               ; preds = %13
  %29 = load ptr, ptr %4, align 8, !tbaa !27
  %30 = icmp ne ptr %29, null
  br i1 %30, label %34, label %31

31:                                               ; preds = %28
  %32 = load ptr, ptr %6, align 8, !tbaa !9
  %33 = call ptr @get_ref_dir(ptr noundef %32)
  call void @prime_ref_dir(ptr noundef %33, ptr noundef null)
  br label %48

34:                                               ; preds = %28
  %35 = load ptr, ptr %6, align 8, !tbaa !9
  %36 = getelementptr inbounds nuw %struct.ref_entry, ptr %35, i32 0, i32 2
  %37 = getelementptr inbounds [0 x i8], ptr %36, i64 0, i64 0
  %38 = load ptr, ptr %4, align 8, !tbaa !27
  %39 = call i32 @overlaps_prefix(ptr noundef %37, ptr noundef %38)
  switch i32 %39, label %47 [
    i32 0, label %40
    i32 1, label %43
    i32 2, label %47
  ]

40:                                               ; preds = %34
  %41 = load ptr, ptr %6, align 8, !tbaa !9
  %42 = call ptr @get_ref_dir(ptr noundef %41)
  call void @prime_ref_dir(ptr noundef %42, ptr noundef null)
  br label %47

43:                                               ; preds = %34
  %44 = load ptr, ptr %6, align 8, !tbaa !9
  %45 = call ptr @get_ref_dir(ptr noundef %44)
  %46 = load ptr, ptr %4, align 8, !tbaa !27
  call void @prime_ref_dir(ptr noundef %45, ptr noundef %46)
  br label %47

47:                                               ; preds = %34, %34, %43, %40
  br label %48

48:                                               ; preds = %47, %31
  br label %49

49:                                               ; preds = %48, %27
  call void @llvm.lifetime.end.p0(i64 8, ptr %6) #10
  br label %50

50:                                               ; preds = %49
  %51 = load i32, ptr %5, align 4, !tbaa !31
  %52 = add nsw i32 %51, 1
  store i32 %52, ptr %5, align 4, !tbaa !31
  br label %7, !llvm.loop !68

53:                                               ; preds = %7
  call void @llvm.lifetime.end.p0(i64 4, ptr %5) #10
  ret void
}