; Function Attrs: nounwind uwtable
define internal fastcc void @prime_ref_dir(ptr noundef readonly captures(none) %0, ptr noundef %1) unnamed_addr #0 {
  %3 = load i32, ptr %0, align 8, !tbaa !4
  %4 = icmp sgt i32 %3, 0
  br i1 %4, label %.lr.ph, label %._crit_edge

.lr.ph:                                           ; preds = %2
  %5 = getelementptr inbounds nuw i8, ptr %0, i64 24
  %.not13 = icmp eq ptr %1, null
  br i1 %.not13, label %.lr.ph.split.us, label %.lr.ph.split

.lr.ph.split.us:                                  ; preds = %.lr.ph, %overlaps_prefix.exit.thread22.us
  %6 = phi i32 [ %26, %overlaps_prefix.exit.thread22.us ], [ %3, %.lr.ph ]
  %indvars.iv29 = phi i64 [ %indvars.iv.next30, %overlaps_prefix.exit.thread22.us ], [ 0, %.lr.ph ]
  %7 = load ptr, ptr %5, align 8, !tbaa !13
  %8 = getelementptr inbounds nuw ptr, ptr %7, i64 %indvars.iv29
  %9 = load ptr, ptr %8, align 8, !tbaa !14
  %10 = load i8, ptr %9, align 8, !tbaa !17
  %11 = and i8 %10, 16
  %.not.us = icmp eq i8 %11, 0
  br i1 %.not.us, label %overlaps_prefix.exit.thread22.us, label %12

12:                                               ; preds = %.lr.ph.split.us
  %13 = getelementptr inbounds nuw i8, ptr %9, i64 8
  %14 = and i8 %10, 32
  %.not.i.us = icmp eq i8 %14, 0
  br i1 %.not.i.us, label %get_ref_dir.exit.us, label %15

15:                                               ; preds = %12
  %16 = getelementptr inbounds nuw i8, ptr %9, i64 24
  %17 = load ptr, ptr %16, align 8, !tbaa !18
  %18 = getelementptr inbounds nuw i8, ptr %17, i64 16
  %19 = load ptr, ptr %18, align 8, !tbaa !19
  %.not9.i.us = icmp eq ptr %19, null
  br i1 %.not9.i.us, label %.split.us, label %20

20:                                               ; preds = %15
  %21 = getelementptr inbounds nuw i8, ptr %17, i64 8
  %22 = load ptr, ptr %21, align 8, !tbaa !22
  %23 = getelementptr inbounds nuw i8, ptr %9, i64 56
  tail call void %19(ptr noundef %22, ptr noundef nonnull %13, ptr noundef nonnull %23) #11
  %24 = load i8, ptr %9, align 8, !tbaa !17
  %25 = and i8 %24, -33
  store i8 %25, ptr %9, align 8, !tbaa !17
  br label %get_ref_dir.exit.us

get_ref_dir.exit.us:                              ; preds = %20, %12
  tail call fastcc void @prime_ref_dir(ptr noundef nonnull %13, ptr noundef null)
  %.pre = load i32, ptr %0, align 8, !tbaa !4
  br label %overlaps_prefix.exit.thread22.us

overlaps_prefix.exit.thread22.us:                 ; preds = %get_ref_dir.exit.us, %.lr.ph.split.us
  %26 = phi i32 [ %.pre, %get_ref_dir.exit.us ], [ %6, %.lr.ph.split.us ]
  %indvars.iv.next30 = add nuw nsw i64 %indvars.iv29, 1
  %27 = sext i32 %26 to i64
  %28 = icmp slt i64 %indvars.iv.next30, %27
  br i1 %28, label %.lr.ph.split.us, label %._crit_edge, !llvm.loop !49

.lr.ph.split:                                     ; preds = %.lr.ph, %overlaps_prefix.exit.thread22
  %indvars.iv = phi i64 [ %indvars.iv.next, %overlaps_prefix.exit.thread22 ], [ 0, %.lr.ph ]
  %29 = load ptr, ptr %5, align 8, !tbaa !13
  %30 = getelementptr inbounds nuw ptr, ptr %29, i64 %indvars.iv
  %31 = load ptr, ptr %30, align 8, !tbaa !14
  %32 = load i8, ptr %31, align 8, !tbaa !17
  %33 = and i8 %32, 16
  %.not = icmp eq i8 %33, 0
  br i1 %.not, label %overlaps_prefix.exit.thread22, label %34

34:                                               ; preds = %.lr.ph.split
  %35 = getelementptr inbounds nuw i8, ptr %31, i64 56
  %36 = load i8, ptr %1, align 1, !tbaa !17
  %.not13.i = icmp eq i8 %36, 0
  br i1 %.not13.i, label %.loopexit, label %.lr.ph.i

.split.us:                                        ; preds = %15
  tail call void (ptr, i32, ptr, ...) @BUG_fl(ptr noundef nonnull @.str, i32 noundef 28, ptr noundef nonnull @.str.1) #10
  unreachable

.lr.ph.i:                                         ; preds = %34, %40
  %37 = phi i8 [ %43, %40 ], [ %36, %34 ]
  %.015.i = phi ptr [ %42, %40 ], [ %1, %34 ]
  %.0714.i = phi ptr [ %41, %40 ], [ %35, %34 ]
  %38 = load i8, ptr %.0714.i, align 1, !tbaa !17
  %39 = icmp eq i8 %38, %37
  br i1 %39, label %40, label %.critedge.i

40:                                               ; preds = %.lr.ph.i
  %41 = getelementptr inbounds nuw i8, ptr %.0714.i, i64 1
  %42 = getelementptr inbounds nuw i8, ptr %.015.i, i64 1
  %43 = load i8, ptr %42, align 1, !tbaa !17
  %.not.i14 = icmp eq i8 %43, 0
  br i1 %.not.i14, label %.loopexit, label %.lr.ph.i, !llvm.loop !50

.critedge.i:                                      ; preds = %.lr.ph.i
  %.not11.i = icmp eq i8 %38, 0
  br i1 %.not11.i, label %overlaps_prefix.exit, label %overlaps_prefix.exit.thread22

.loopexit:                                        ; preds = %40, %34
  %44 = getelementptr inbounds nuw i8, ptr %31, i64 8
  %45 = and i8 %32, 32
  %.not.i15 = icmp eq i8 %45, 0
  br i1 %.not.i15, label %get_ref_dir.exit17, label %46

46:                                               ; preds = %.loopexit
  %47 = getelementptr inbounds nuw i8, ptr %31, i64 24
  %48 = load ptr, ptr %47, align 8, !tbaa !18
  %49 = getelementptr inbounds nuw i8, ptr %48, i64 16
  %50 = load ptr, ptr %49, align 8, !tbaa !19
  %.not9.i16 = icmp eq ptr %50, null
  br i1 %.not9.i16, label %51, label %52

51:                                               ; preds = %46
  tail call void (ptr, i32, ptr, ...) @BUG_fl(ptr noundef nonnull @.str, i32 noundef 28, ptr noundef nonnull @.str.1) #10
  unreachable

52:                                               ; preds = %46
  %53 = getelementptr inbounds nuw i8, ptr %48, i64 8
  %54 = load ptr, ptr %53, align 8, !tbaa !22
  tail call void %50(ptr noundef %54, ptr noundef nonnull %44, ptr noundef nonnull %35) #11
  %55 = load i8, ptr %31, align 8, !tbaa !17
  %56 = and i8 %55, -33
  store i8 %56, ptr %31, align 8, !tbaa !17
  br label %get_ref_dir.exit17

get_ref_dir.exit17:                               ; preds = %.loopexit, %52
  tail call fastcc void @prime_ref_dir(ptr noundef nonnull %44, ptr noundef null)
  br label %overlaps_prefix.exit.thread22

overlaps_prefix.exit:                             ; preds = %.critedge.i
  %57 = getelementptr inbounds nuw i8, ptr %31, i64 8
  %58 = and i8 %32, 32
  %.not.i18 = icmp eq i8 %58, 0
  br i1 %.not.i18, label %get_ref_dir.exit20, label %59

59:                                               ; preds = %overlaps_prefix.exit
  %60 = getelementptr inbounds nuw i8, ptr %31, i64 24
  %61 = load ptr, ptr %60, align 8, !tbaa !18
  %62 = getelementptr inbounds nuw i8, ptr %61, i64 16
  %63 = load ptr, ptr %62, align 8, !tbaa !19
  %.not9.i19 = icmp eq ptr %63, null
  br i1 %.not9.i19, label %64, label %65

64:                                               ; preds = %59
  tail call void (ptr, i32, ptr, ...) @BUG_fl(ptr noundef nonnull @.str, i32 noundef 28, ptr noundef nonnull @.str.1) #10
  unreachable

65:                                               ; preds = %59
  %66 = getelementptr inbounds nuw i8, ptr %61, i64 8
  %67 = load ptr, ptr %66, align 8, !tbaa !22
  tail call void %63(ptr noundef %67, ptr noundef nonnull %57, ptr noundef nonnull %35) #11
  %68 = load i8, ptr %31, align 8, !tbaa !17
  %69 = and i8 %68, -33
  store i8 %69, ptr %31, align 8, !tbaa !17
  br label %get_ref_dir.exit20

get_ref_dir.exit20:                               ; preds = %overlaps_prefix.exit, %65
  tail call fastcc void @prime_ref_dir(ptr noundef nonnull %57, ptr noundef nonnull %1)
  br label %overlaps_prefix.exit.thread22

overlaps_prefix.exit.thread22:                    ; preds = %.critedge.i, %get_ref_dir.exit20, %get_ref_dir.exit17, %.lr.ph.split
  %indvars.iv.next = add nuw nsw i64 %indvars.iv, 1
  %70 = load i32, ptr %0, align 8, !tbaa !4
  %71 = sext i32 %70 to i64
  %72 = icmp slt i64 %indvars.iv.next, %71
  br i1 %72, label %.lr.ph.split, label %._crit_edge, !llvm.loop !49

._crit_edge:                                      ; preds = %overlaps_prefix.exit.thread22, %overlaps_prefix.exit.thread22.us, %2
  ret void
}